;--------------------------------------------------------
; File Created by SDCC : free open source ANSI-C Compiler
; Version 4.1.0 #12072 (MINGW64)
;--------------------------------------------------------
	.module quickplay
	.optsdcc -mz80
	
;--------------------------------------------------------
; Public variables in this module
;--------------------------------------------------------
	.globl _main
	.globl _memcpy
	.globl _ay_SongLoop
	.globl _ay_StartSong
	.globl _SongLoop
	.globl _StartSong
	.globl _charsetlc
	.globl _vdpwaitvint
	.globl _vdpmemcpy
	.globl _vdpmemset
	.globl _set_graphics
	.globl _secondSong
	.globl _firstSong
	.globl _flags
	.globl _textout
	.globl _tramp
;--------------------------------------------------------
; special function registers
;--------------------------------------------------------
_VDPRD	=	0x00be
_VDPST	=	0x00bf
_VDPWA	=	0x00bf
_VDPWD	=	0x00be
_SOUND	=	0x00ff
;--------------------------------------------------------
; ram data
;--------------------------------------------------------
	.area _DATA
_firstSong::
	.ds 2
_secondSong::
	.ds 2
;--------------------------------------------------------
; ram data
;--------------------------------------------------------
	.area _INITIALIZED
;--------------------------------------------------------
; absolute external ram data
;--------------------------------------------------------
	.area _DABS (ABS)
;--------------------------------------------------------
; global & static initialisations
;--------------------------------------------------------
	.area _HOME
	.area _GSINIT
	.area _GSFINAL
	.area _GSINIT
;--------------------------------------------------------
; Home
;--------------------------------------------------------
	.area _HOME
	.area _HOME
;--------------------------------------------------------
; code
;--------------------------------------------------------
	.area _CODE
;quickplay.c:88: int main() {
;	---------------------------------
; Function main
; ---------------------------------
_main::
;quickplay.c:93: set_graphics(VDP_SPR_8x8);
	xor	a, a
	push	af
	inc	sp
	call	_set_graphics
	inc	sp
;quickplay.c:94: charsetlc();
	call	_charsetlc
;quickplay.c:95: vdpmemset(gColor, 0xf4, 32);
	ld	hl, #0x0020
	push	hl
	ld	a, #0xf4
	push	af
	inc	sp
	ld	hl, (_gColor)
	push	hl
	call	_vdpmemset
	pop	af
	pop	af
	inc	sp
;d:/work/coleco/libti99coleco/vdp.h:71: inline void VDP_SET_REGISTER(unsigned char r, unsigned char v)		{	VDPWA=(v); VDPWA=(0x80|(r)); }
	ld	a, #0x04
	out	(_VDPWA), a
	ld	a, #0x87
	out	(_VDPWA), a
;quickplay.c:100: vdpmemcpy(gImage, textout, 768);
	ld	hl, #0x0300
	push	hl
	ld	hl, #_textout
	push	hl
	ld	hl, (_gImage)
	push	hl
	call	_vdpmemcpy
	pop	af
	pop	af
	pop	af
;quickplay.c:103: firstSong = *((unsigned int*)&flags[6]);
	ld	hl, #(_flags + 0x0006)
	ld	a, (hl)
	ld	(_firstSong+0), a
	inc	hl
	ld	a, (hl)
	ld	(_firstSong+1), a
;quickplay.c:104: secondSong = *((unsigned int*)&flags[8]);
	ld	hl, #(_flags + 0x0008)
	ld	a, (hl)
	ld	(_secondSong+0), a
	inc	hl
	ld	a, (hl)
	ld	(_secondSong+1), a
;quickplay.c:117: volatile unsigned char *pLoop = (volatile unsigned char *)&flags[13];
;quickplay.c:119: do {
00118$:
;quickplay.c:121: if (0 != firstSong) {
	ld	iy, #_firstSong
	ld	a, 1 (iy)
	or	a, 0 (iy)
	jr	Z, 00102$
;quickplay.c:122: StartSong((unsigned char*)firstSong, 0);
	ld	hl, (_firstSong)
	xor	a, a
	push	af
	inc	sp
	push	hl
	call	_StartSong
	pop	af
	inc	sp
00102$:
;quickplay.c:124: if (0 != secondSong) {
	ld	iy, #_secondSong
	ld	a, 1 (iy)
	or	a, 0 (iy)
	jr	Z, 00104$
;quickplay.c:129: ay_StartSong((unsigned char*)secondSong, 0);
	ld	hl, (_secondSong)
	xor	a, a
	push	af
	inc	sp
	push	hl
	call	_ay_StartSong
	pop	af
	inc	sp
00104$:
;quickplay.c:134: done = 0;
	ld	c, #0x00
;quickplay.c:135: while (!done) {
00113$:
	ld	a, c
	or	a, a
	jr	NZ, 00115$
;quickplay.c:136: done = 1;
	ld	c, #0x01
;quickplay.c:137: vdpwaitvint();	// waits for a console interrupts, allows quit/etc
	push	bc
	call	_vdpwaitvint
	pop	bc
;quickplay.c:138: if (0 != firstSong) {
	ld	iy, #_firstSong
	ld	a, 1 (iy)
	or	a, 0 (iy)
	jr	Z, 00108$
;quickplay.c:139: if (isSNPlaying) {
	ld	hl, (#(_songNote + 0x0006) + 0)
	bit	0, l
	jr	Z, 00108$
;quickplay.c:140: CALL_PLAYER_SN;
	call	_SongLoop
;quickplay.c:141: done = 0;
	ld	c, #0x00
00108$:
;quickplay.c:144: if (0 != secondSong) {
	ld	iy, #_secondSong
	ld	a, 1 (iy)
	or	a, 0 (iy)
	jr	Z, 00113$
;quickplay.c:152: if (isAYPlaying) {
	ld	hl, (#(_ay_songNote + 0x0006) + 0)
	bit	0, l
	jr	Z, 00113$
;quickplay.c:153: CALL_PLAYER_AY;
	call	_ay_SongLoop
;quickplay.c:154: done = 0;
	ld	c, #0x00
	jr	00113$
00115$:
;quickplay.c:162: chain = (unsigned int)(*((volatile unsigned int*)(&flags[14])));
	ld	hl, (#(_flags + 0x000e) + 0)
	ld	c, l
;quickplay.c:163: if (chain) {
	ld	a,h
	ld	b,a
	or	a, l
	jr	Z, 00119$
;quickplay.c:172: memcpy((void*)0x7000, tramp, sizeof(tramp));   // this will trounce variables but we don't need them anymore
	push	bc
	ld	hl, #0x0006
	push	hl
	ld	hl, #_tramp
	push	hl
	ld	hl, #0x7000
	push	hl
	call	_memcpy
	pop	af
	pop	af
	pop	af
	pop	bc
;quickplay.c:173: *((unsigned int*)0x7001) = chain;     // patch the pointer, chained should be on the stack
	ld	(0x7001), bc
;quickplay.c:174: ((void(*)())0x7000)();                  // call the function, never return
	call	0x7000
00119$:
;quickplay.c:177: } while (*pLoop);
	ld	a, (#(_flags + 0x000d) + 0)
	or	a, a
	jp	NZ, 00118$
;quickplay.c:188: __endasm;
	rst	0x00
;quickplay.c:192: return 2;
	ld	hl, #0x0002
;quickplay.c:194: }
	ret
_tramp:
	.db #0x3a	; 58
	.db #0xff	; 255
	.db #0xff	; 255
	.db #0xc3	; 195
	.db #0x00	; 0
	.db #0xc0	; 192
_textout:
	.ascii "~~~~DATAHERE~~~~24"
	.db 0x00
	.db 0x00
	.db 0x00
	.db 0x00
	.db 0x00
	.db 0x00
	.db 0x00
	.db 0x00
	.db 0x00
	.db 0x00
	.db 0x00
	.db 0x00
	.db 0x00
	.db 0x00
	.db 0x00
	.db 0x00
	.db 0x00
	.db 0x00
	.db 0x00
	.db 0x00
	.db 0x00
	.db 0x00
	.db 0x00
	.db 0x00
	.db 0x00
	.db 0x00
	.db 0x00
	.db 0x00
	.db 0x00
	.db 0x00
	.db 0x00
	.db 0x00
	.db 0x00
	.db 0x00
	.db 0x00
	.db 0x00
	.db 0x00
	.db 0x00
	.db 0x00
	.db 0x00
	.db 0x00
	.db 0x00
	.db 0x00
	.db 0x00
	.db 0x00
	.db 0x00
	.db 0x00
	.db 0x00
	.db 0x00
	.db 0x00
	.db 0x00
	.db 0x00
	.db 0x00
	.db 0x00
	.db 0x00
	.db 0x00
	.db 0x00
	.db 0x00
	.db 0x00
	.db 0x00
	.db 0x00
	.db 0x00
	.db 0x00
	.db 0x00
	.db 0x00
	.db 0x00
	.db 0x00
	.db 0x00
	.db 0x00
	.db 0x00
	.db 0x00
	.db 0x00
	.db 0x00
	.db 0x00
	.db 0x00
	.db 0x00
	.db 0x00
	.db 0x00
	.db 0x00
	.db 0x00
	.db 0x00
	.db 0x00
	.db 0x00
	.db 0x00
	.db 0x00
	.db 0x00
	.db 0x00
	.db 0x00
	.db 0x00
	.db 0x00
	.db 0x00
	.db 0x00
	.db 0x00
	.db 0x00
	.db 0x00
	.db 0x00
	.db 0x00
	.db 0x00
	.db 0x00
	.db 0x00
	.db 0x00
	.db 0x00
	.db 0x00
	.db 0x00
	.db 0x00
	.db 0x00
	.db 0x00
	.db 0x00
	.db 0x00
	.db 0x00
	.db 0x00
	.db 0x00
	.db 0x00
	.db 0x00
	.db 0x00
	.db 0x00
	.db 0x00
	.db 0x00
	.db 0x00
	.db 0x00
	.db 0x00
	.db 0x00
	.db 0x00
	.db 0x00
	.db 0x00
	.db 0x00
	.db 0x00
	.db 0x00
	.db 0x00
	.db 0x00
	.db 0x00
	.db 0x00
	.db 0x00
	.db 0x00
	.db 0x00
	.db 0x00
	.db 0x00
	.db 0x00
	.db 0x00
	.db 0x00
	.db 0x00
	.db 0x00
	.db 0x00
	.db 0x00
	.db 0x00
	.db 0x00
	.db 0x00
	.db 0x00
	.db 0x00
	.db 0x00
	.db 0x00
	.db 0x00
	.db 0x00
	.db 0x00
	.db 0x00
	.db 0x00
	.db 0x00
	.db 0x00
	.db 0x00
	.db 0x00
	.db 0x00
	.db 0x00
	.db 0x00
	.db 0x00
	.db 0x00
	.db 0x00
	.db 0x00
	.db 0x00
	.db 0x00
	.db 0x00
	.db 0x00
	.db 0x00
	.db 0x00
	.db 0x00
	.db 0x00
	.db 0x00
	.db 0x00
	.db 0x00
	.db 0x00
	.db 0x00
	.db 0x00
	.db 0x00
	.db 0x00
	.db 0x00
	.db 0x00
	.db 0x00
	.db 0x00
	.db 0x00
	.db 0x00
	.db 0x00
	.db 0x00
	.db 0x00
	.db 0x00
	.db 0x00
	.db 0x00
	.db 0x00
	.db 0x00
	.db 0x00
	.db 0x00
	.db 0x00
	.db 0x00
	.db 0x00
	.db 0x00
	.db 0x00
	.db 0x00
	.db 0x00
	.db 0x00
	.db 0x00
	.db 0x00
	.db 0x00
	.db 0x00
	.db 0x00
	.db 0x00
	.db 0x00
	.db 0x00
	.db 0x00
	.db 0x00
	.db 0x00
	.db 0x00
	.db 0x00
	.db 0x00
	.db 0x00
	.db 0x00
	.db 0x00
	.db 0x00
	.db 0x00
	.db 0x00
	.db 0x00
	.db 0x00
	.db 0x00
	.db 0x00
	.db 0x00
	.db 0x00
	.db 0x00
	.db 0x00
	.db 0x00
	.db 0x00
	.db 0x00
	.db 0x00
	.db 0x00
	.db 0x00
	.db 0x00
	.db 0x00
	.db 0x00
	.db 0x00
	.db 0x00
	.db 0x00
	.db 0x00
	.db 0x00
	.db 0x00
	.db 0x00
	.db 0x00
	.db 0x00
	.db 0x00
	.db 0x00
	.db 0x00
	.db 0x00
	.db 0x00
	.db 0x00
	.db 0x00
	.db 0x00
	.db 0x00
	.db 0x00
	.db 0x00
	.db 0x00
	.db 0x00
	.db 0x00
	.db 0x00
	.db 0x00
	.db 0x00
	.db 0x00
	.db 0x00
	.db 0x00
	.db 0x00
	.db 0x00
	.db 0x00
	.db 0x00
	.db 0x00
	.db 0x00
	.db 0x00
	.db 0x00
	.db 0x00
	.db 0x00
	.db 0x00
	.db 0x00
	.db 0x00
	.db 0x00
	.db 0x00
	.db 0x00
	.db 0x00
	.db 0x00
	.db 0x00
	.db 0x00
	.db 0x00
	.db 0x00
	.db 0x00
	.db 0x00
	.db 0x00
	.db 0x00
	.db 0x00
	.db 0x00
	.db 0x00
	.db 0x00
	.db 0x00
	.db 0x00
	.db 0x00
	.db 0x00
	.db 0x00
	.db 0x00
	.db 0x00
	.db 0x00
	.db 0x00
	.db 0x00
	.db 0x00
	.db 0x00
	.db 0x00
	.db 0x00
	.db 0x00
	.db 0x00
	.db 0x00
	.db 0x00
	.db 0x00
	.db 0x00
	.db 0x00
	.db 0x00
	.db 0x00
	.db 0x00
	.db 0x00
	.db 0x00
	.db 0x00
	.db 0x00
	.db 0x00
	.db 0x00
	.db 0x00
	.db 0x00
	.db 0x00
	.db 0x00
	.db 0x00
	.db 0x00
	.db 0x00
	.db 0x00
	.db 0x00
	.db 0x00
	.db 0x00
	.db 0x00
	.db 0x00
	.db 0x00
	.db 0x00
	.db 0x00
	.db 0x00
	.db 0x00
	.db 0x00
	.db 0x00
	.db 0x00
	.db 0x00
	.db 0x00
	.db 0x00
	.db 0x00
	.db 0x00
	.db 0x00
	.db 0x00
	.db 0x00
	.db 0x00
	.db 0x00
	.db 0x00
	.db 0x00
	.db 0x00
	.db 0x00
	.db 0x00
	.db 0x00
	.db 0x00
	.db 0x00
	.db 0x00
	.db 0x00
	.db 0x00
	.db 0x00
	.db 0x00
	.db 0x00
	.db 0x00
	.db 0x00
	.db 0x00
	.db 0x00
	.db 0x00
	.db 0x00
	.db 0x00
	.db 0x00
	.db 0x00
	.db 0x00
	.db 0x00
	.db 0x00
	.db 0x00
	.db 0x00
	.db 0x00
	.db 0x00
	.db 0x00
	.db 0x00
	.db 0x00
	.db 0x00
	.db 0x00
	.db 0x00
	.db 0x00
	.db 0x00
	.db 0x00
	.db 0x00
	.db 0x00
	.db 0x00
	.db 0x00
	.db 0x00
	.db 0x00
	.db 0x00
	.db 0x00
	.db 0x00
	.db 0x00
	.db 0x00
	.db 0x00
	.db 0x00
	.db 0x00
	.db 0x00
	.db 0x00
	.db 0x00
	.db 0x00
	.db 0x00
	.db 0x00
	.db 0x00
	.db 0x00
	.db 0x00
	.db 0x00
	.db 0x00
	.db 0x00
	.db 0x00
	.db 0x00
	.db 0x00
	.db 0x00
	.db 0x00
	.db 0x00
	.db 0x00
	.db 0x00
	.db 0x00
	.db 0x00
	.db 0x00
	.db 0x00
	.db 0x00
	.db 0x00
	.db 0x00
	.db 0x00
	.db 0x00
	.db 0x00
	.db 0x00
	.db 0x00
	.db 0x00
	.db 0x00
	.db 0x00
	.db 0x00
	.db 0x00
	.db 0x00
	.db 0x00
	.db 0x00
	.db 0x00
	.db 0x00
	.db 0x00
	.db 0x00
	.db 0x00
	.db 0x00
	.db 0x00
	.db 0x00
	.db 0x00
	.db 0x00
	.db 0x00
	.db 0x00
	.db 0x00
	.db 0x00
	.db 0x00
	.db 0x00
	.db 0x00
	.db 0x00
	.db 0x00
	.db 0x00
	.db 0x00
	.db 0x00
	.db 0x00
	.db 0x00
	.db 0x00
	.db 0x00
	.db 0x00
	.db 0x00
	.db 0x00
	.db 0x00
	.db 0x00
	.db 0x00
	.db 0x00
	.db 0x00
	.db 0x00
	.db 0x00
	.db 0x00
	.db 0x00
	.db 0x00
	.db 0x00
	.db 0x00
	.db 0x00
	.db 0x00
	.db 0x00
	.db 0x00
	.db 0x00
	.db 0x00
	.db 0x00
	.db 0x00
	.db 0x00
	.db 0x00
	.db 0x00
	.db 0x00
	.db 0x00
	.db 0x00
	.db 0x00
	.db 0x00
	.db 0x00
	.db 0x00
	.db 0x00
	.db 0x00
	.db 0x00
	.db 0x00
	.db 0x00
	.db 0x00
	.db 0x00
	.db 0x00
	.db 0x00
	.db 0x00
	.db 0x00
	.db 0x00
	.db 0x00
	.db 0x00
	.db 0x00
	.db 0x00
	.db 0x00
	.db 0x00
	.db 0x00
	.db 0x00
	.db 0x00
	.db 0x00
	.db 0x00
	.db 0x00
	.db 0x00
	.db 0x00
	.db 0x00
	.db 0x00
	.db 0x00
	.db 0x00
	.db 0x00
	.db 0x00
	.db 0x00
	.db 0x00
	.db 0x00
	.db 0x00
	.db 0x00
	.db 0x00
	.db 0x00
	.db 0x00
	.db 0x00
	.db 0x00
	.db 0x00
	.db 0x00
	.db 0x00
	.db 0x00
	.db 0x00
	.db 0x00
	.db 0x00
	.db 0x00
	.db 0x00
	.db 0x00
	.db 0x00
	.db 0x00
	.db 0x00
	.db 0x00
	.db 0x00
	.db 0x00
	.db 0x00
	.db 0x00
	.db 0x00
	.db 0x00
	.db 0x00
	.db 0x00
	.db 0x00
	.db 0x00
	.db 0x00
	.db 0x00
	.db 0x00
	.db 0x00
	.db 0x00
	.db 0x00
	.db 0x00
	.db 0x00
	.db 0x00
	.db 0x00
	.db 0x00
	.db 0x00
	.db 0x00
	.db 0x00
	.db 0x00
	.db 0x00
	.db 0x00
	.db 0x00
	.db 0x00
	.db 0x00
	.db 0x00
	.db 0x00
	.db 0x00
	.db 0x00
	.db 0x00
	.db 0x00
	.db 0x00
	.db 0x00
	.db 0x00
	.db 0x00
	.db 0x00
	.db 0x00
	.db 0x00
	.db 0x00
	.db 0x00
	.db 0x00
	.db 0x00
	.db 0x00
	.db 0x00
	.db 0x00
	.db 0x00
	.db 0x00
	.db 0x00
	.db 0x00
	.db 0x00
	.db 0x00
	.db 0x00
	.db 0x00
	.db 0x00
	.db 0x00
	.db 0x00
	.db 0x00
	.db 0x00
	.db 0x00
	.db 0x00
	.db 0x00
	.db 0x00
	.db 0x00
	.db 0x00
	.db 0x00
	.db 0x00
	.db 0x00
	.db 0x00
	.db 0x00
	.db 0x00
	.db 0x00
	.db 0x00
	.db 0x00
	.db 0x00
	.db 0x00
	.db 0x00
	.db 0x00
	.db 0x00
	.db 0x00
	.db 0x00
	.db 0x00
	.db 0x00
	.db 0x00
	.db 0x00
	.db 0x00
	.db 0x00
	.db 0x00
	.db 0x00
	.db 0x00
	.db 0x00
	.db 0x00
	.db 0x00
	.db 0x00
	.db 0x00
	.db 0x00
	.db 0x00
	.db 0x00
	.db 0x00
	.db 0x00
	.db 0x00
	.db 0x00
	.db 0x00
	.db 0x00
	.db 0x00
	.db 0x00
	.db 0x00
	.db 0x00
	.db 0x00
	.db 0x00
	.db 0x00
	.db 0x00
	.db 0x00
	.db 0x00
	.db 0x00
	.db 0x00
	.db 0x00
	.db 0x00
	.db 0x00
	.db 0x00
	.db 0x00
	.db 0x00
	.db 0x00
	.db 0x00
	.db 0x00
	.db 0x00
	.db 0x00
	.db 0x00
	.db 0x00
	.db 0x00
	.db 0x00
	.db 0x00
	.db 0x00
	.db 0x00
	.db 0x00
	.db 0x00
	.db 0x00
	.db 0x00
	.db 0x00
	.db 0x00
	.db 0x00
	.db 0x00
	.db 0x00
	.db 0x00
	.db 0x00
	.db 0x00
	.db 0x00
	.db 0x00
	.db 0x00
	.db 0x00
	.db 0x00
	.db 0x00
	.db 0x00
	.db 0x00
	.db 0x00
	.db 0x00
	.db 0x00
	.db 0x00
	.db 0x00
	.db 0x00
	.db 0x00
	.db 0x00
	.db 0x00
	.db 0x00
	.db 0x00
	.db 0x00
	.db 0x00
	.db 0x00
	.db 0x00
	.db 0x00
	.db 0x00
	.db 0x00
	.db 0x00
	.db 0x00
_flags:
	.ascii "~~FLAGxxyySSSL"
	.db 0x00
	.db 0x00
	.ascii ":"
	.db 0x00
	.area _CODE
	.area _INITIALIZER
	.area _CABS (ABS)
